; Function Attrs: mustprogress nofree norecurse nosync nounwind willreturn memory(argmem: readwrite) uwtable
define dso_local range(i32 -9, 1) i32 @fdt_add_reservemap_entry(ptr noundef captures(none) %0, i64 noundef %1, i64 noundef %2) local_unnamed_addr #3 {
  %4 = load i8, ptr %0, align 1
  %5 = zext i8 %4 to i32
  %6 = shl nuw i32 %5, 24
  %7 = getelementptr inbounds nuw i8, ptr %0, i64 1
  %8 = load i8, ptr %7, align 1
  %9 = zext i8 %8 to i32
  %10 = shl nuw nsw i32 %9, 16
  %11 = or disjoint i32 %10, %6
  %12 = getelementptr inbounds nuw i8, ptr %0, i64 2
  %13 = load i8, ptr %12, align 1
  %14 = zext i8 %13 to i32
  %15 = shl nuw nsw i32 %14, 8
  %16 = or disjoint i32 %11, %15
  %17 = getelementptr inbounds nuw i8, ptr %0, i64 3
  %18 = load i8, ptr %17, align 1
  %19 = zext i8 %18 to i32
  %20 = or disjoint i32 %16, %19
  %.not.i.i = icmp eq i32 %20, 804389138
  br i1 %.not.i.i, label %21, label %fdt_sw_probe_memrsv_.exit

21:                                               ; preds = %3
  %22 = getelementptr inbounds nuw i8, ptr %0, i64 12
  %23 = load i8, ptr %22, align 1
  %24 = zext i8 %23 to i32
  %25 = shl nuw i32 %24, 24
  %26 = getelementptr inbounds nuw i8, ptr %0, i64 13
  %27 = load i8, ptr %26, align 1
  %28 = zext i8 %27 to i32
  %29 = shl nuw nsw i32 %28, 16
  %30 = or disjoint i32 %29, %25
  %31 = getelementptr inbounds nuw i8, ptr %0, i64 14
  %32 = load i8, ptr %31, align 1
  %33 = zext i8 %32 to i32
  %34 = shl nuw nsw i32 %33, 8
  %35 = or disjoint i32 %30, %34
  %36 = getelementptr inbounds nuw i8, ptr %0, i64 15
  %37 = load i8, ptr %36, align 1
  %38 = zext i8 %37 to i32
  %39 = or disjoint i32 %35, %38
  %.not5.i = icmp eq i32 %39, 0
  br i1 %.not5.i, label %fdt_sw_probe_memrsv_.exit.thread, label %fdt_sw_probe_memrsv_.exit.thread18

fdt_sw_probe_memrsv_.exit:                        ; preds = %3
  %40 = icmp eq i32 %20, -804389139
  %.0.i.i = select i1 %40, i32 -7, i32 -9
  br label %fdt_sw_probe_memrsv_.exit.thread18

fdt_sw_probe_memrsv_.exit.thread:                 ; preds = %21
  %41 = getelementptr inbounds nuw i8, ptr %0, i64 8
  %42 = load i8, ptr %41, align 1
  %43 = zext i8 %42 to i32
  %44 = shl nuw i32 %43, 24
  %45 = getelementptr inbounds nuw i8, ptr %0, i64 9
  %46 = load i8, ptr %45, align 1
  %47 = zext i8 %46 to i32
  %48 = shl nuw nsw i32 %47, 16
  %49 = or disjoint i32 %48, %44
  %50 = getelementptr inbounds nuw i8, ptr %0, i64 10
  %51 = load i8, ptr %50, align 1
  %52 = zext i8 %51 to i32
  %53 = shl nuw nsw i32 %52, 8
  %54 = or disjoint i32 %49, %53
  %55 = getelementptr inbounds nuw i8, ptr %0, i64 11
  %56 = load i8, ptr %55, align 1
  %57 = zext i8 %56 to i32
  %58 = or disjoint i32 %54, %57
  %59 = sext i32 %58 to i64
  %60 = add nsw i64 %59, 16
  %61 = getelementptr inbounds nuw i8, ptr %0, i64 4
  %62 = load i8, ptr %61, align 1
  %63 = zext i8 %62 to i64
  %64 = shl nuw nsw i64 %63, 24
  %65 = getelementptr inbounds nuw i8, ptr %0, i64 5
  %66 = load i8, ptr %65, align 1
  %67 = zext i8 %66 to i64
  %68 = shl nuw nsw i64 %67, 16
  %69 = or disjoint i64 %68, %64
  %70 = getelementptr inbounds nuw i8, ptr %0, i64 6
  %71 = load i8, ptr %70, align 1
  %72 = zext i8 %71 to i64
  %73 = shl nuw nsw i64 %72, 8
  %74 = or disjoint i64 %69, %73
  %75 = getelementptr inbounds nuw i8, ptr %0, i64 7
  %76 = load i8, ptr %75, align 1
  %77 = zext i8 %76 to i64
  %78 = or disjoint i64 %74, %77
  %79 = icmp ugt i64 %60, %78
  br i1 %79, label %fdt_sw_probe_memrsv_.exit.thread18, label %80

80:                                               ; preds = %fdt_sw_probe_memrsv_.exit.thread
  %81 = getelementptr inbounds i8, ptr %0, i64 %59
  %82 = tail call noundef i64 @llvm.bswap.i64(i64 %1)
  store i64 %82, ptr %81, align 8
  %83 = tail call noundef i64 @llvm.bswap.i64(i64 %2)
  %84 = getelementptr inbounds nuw i8, ptr %81, i64 8
  store i64 %83, ptr %84, align 8
  %85 = trunc nuw i64 %60 to i32
  %rev.i.i = tail call noundef i32 @llvm.bswap.i32(i32 %85)
  store i32 %rev.i.i, ptr %41, align 4
  br label %fdt_sw_probe_memrsv_.exit.thread18

fdt_sw_probe_memrsv_.exit.thread18:               ; preds = %fdt_sw_probe_memrsv_.exit, %21, %fdt_sw_probe_memrsv_.exit.thread, %80
  %.1 = phi i32 [ 0, %80 ], [ %.0.i.i, %fdt_sw_probe_memrsv_.exit ], [ -3, %fdt_sw_probe_memrsv_.exit.thread ], [ -7, %21 ]
  ret i32 %.1
}